target datalayout = "e-m:e-p270:32:32-p271:32:32-p272:64:64-i64:64-i128:128-f80:128-n8:16:32:64-S128"
target triple = "x86_64-pc-linux-gnu"

%struct.pmix_object_t = type { %union.pthread_mutex_t, ptr, i32, %struct.pmix_tma }
%union.pthread_mutex_t = type { %struct.__pthread_mutex_s }
%struct.__pthread_mutex_s = type { i32, i32, i32, i32, i32, i16, i16, %struct.__pthread_internal_list }
%struct.__pthread_internal_list = type { ptr, ptr }
%struct.pmix_tma = type { ptr, ptr, ptr, ptr, ptr, ptr, ptr, ptr }
%struct.pmix_buffer_t = type { %struct.pmix_object_t, i8, ptr, ptr, ptr, i64, i64 }

@.str = private unnamed_addr constant [5 x i8] c"pmix\00", align 1

; Function Attrs: nounwind uwtable
define internal i32 @unpack(ptr noundef %0, ptr noundef %1) #0 {
  %3 = alloca i32, align 4
  %4 = alloca ptr, align 8
  %5 = alloca ptr, align 8
  %6 = alloca ptr, align 8
  %7 = alloca i32, align 4
  store ptr %0, ptr %4, align 8, !tbaa !31
  store ptr %1, ptr %5, align 8, !tbaa !8
  call void @llvm.lifetime.start.p0(i64 8, ptr %6) #12
  %8 = load ptr, ptr %4, align 8, !tbaa !31
  %9 = getelementptr inbounds nuw %struct.pmix_buffer_t, ptr %8, i32 0, i32 4
  %10 = load ptr, ptr %9, align 8, !tbaa !67
  store ptr %10, ptr %6, align 8, !tbaa !3
  %11 = load ptr, ptr %6, align 8, !tbaa !3
  %12 = call i32 @strncmp(ptr noundef %11, ptr noundef @.str, i64 noundef 4) #13
  %13 = icmp ne i32 0, %12
  br i1 %13, label %14, label %15

14:                                               ; preds = %2
  store i32 -1366, ptr %3, align 4
  store i32 1, ptr %7, align 4
  br label %31

15:                                               ; preds = %2
  %16 = load ptr, ptr %6, align 8, !tbaa !3
  %17 = call noalias ptr @strdup(ptr noundef %16) #12
  %18 = load ptr, ptr %5, align 8, !tbaa !8
  store ptr %17, ptr %18, align 8, !tbaa !3
  %19 = load ptr, ptr %6, align 8, !tbaa !3
  %20 = call i64 @strlen(ptr noundef %19) #13
  %21 = add i64 %20, 1
  %22 = load ptr, ptr %4, align 8, !tbaa !31
  %23 = getelementptr inbounds nuw %struct.pmix_buffer_t, ptr %22, i32 0, i32 4
  %24 = load ptr, ptr %23, align 8, !tbaa !67
  %25 = getelementptr inbounds nuw i8, ptr %24, i64 %21
  store ptr %25, ptr %23, align 8, !tbaa !67
  %26 = load ptr, ptr %5, align 8, !tbaa !8
  %27 = load ptr, ptr %26, align 8, !tbaa !3
  %28 = icmp eq ptr null, %27
  br i1 %28, label %29, label %30

29:                                               ; preds = %15
  store i32 -32, ptr %3, align 4
  store i32 1, ptr %7, align 4
  br label %31

30:                                               ; preds = %15
  store i32 0, ptr %3, align 4
  store i32 1, ptr %7, align 4
  br label %31

31:                                               ; preds = %30, %29, %14
  call void @llvm.lifetime.end.p0(i64 8, ptr %6) #12
  %32 = load i32, ptr %3, align 4
  ret i32 %32
}