; Function Attrs: mustprogress nofree nounwind willreturn uwtable
define internal range(i32 -1366, 1) i32 @unpack(ptr noundef captures(none) %0, ptr noundef captures(none) %1) #2 {
  %3 = getelementptr inbounds nuw i8, ptr %0, i64 144
  %4 = load ptr, ptr %3, align 8, !tbaa !81
  %5 = tail call i32 @strncmp(ptr noundef nonnull dereferenceable(1) %4, ptr noundef nonnull dereferenceable(5) @.str, i64 noundef 4) #19
  %.not = icmp eq i32 %5, 0
  br i1 %.not, label %6, label %14

6:                                                ; preds = %2
  %7 = tail call noalias ptr @strdup(ptr noundef nonnull %4) #18
  store ptr %7, ptr %1, align 8, !tbaa !8
  %8 = tail call i64 @strlen(ptr noundef nonnull dereferenceable(1) %4) #19
  %9 = load ptr, ptr %3, align 8, !tbaa !81
  %10 = getelementptr i8, ptr %9, i64 %8
  %11 = getelementptr i8, ptr %10, i64 1
  store ptr %11, ptr %3, align 8, !tbaa !81
  %12 = load ptr, ptr %1, align 8, !tbaa !8
  %13 = icmp eq ptr %12, null
  %. = select i1 %13, i32 -32, i32 0
  br label %14

14:                                               ; preds = %6, %2
  %.0 = phi i32 [ -1366, %2 ], [ %., %6 ]
  ret i32 %.0
}